; Function Attrs: cold nounwind optsize uwtable
define internal range(i32 -22, 1) i32 @oma_write_header(ptr noundef %0) #0 {
  %2 = alloca [32 x i8], align 1
  %3 = getelementptr inbounds nuw i8, ptr %0, i64 48
  %4 = load ptr, ptr %3, align 8, !tbaa !4
  %5 = load ptr, ptr %4, align 8, !tbaa !24
  %6 = getelementptr inbounds nuw i8, ptr %5, i64 16
  %7 = load ptr, ptr %6, align 8, !tbaa !26
  %8 = load i16, ptr @ff_oma_srate_tab, align 16, !tbaa !33
  %9 = icmp eq i16 %8, 0
  %.phi.trans.insert = getelementptr inbounds nuw i8, ptr %7, i64 152
  %.pre = load i32, ptr %.phi.trans.insert, align 8, !tbaa !35
  br i1 %9, label %._crit_edge, label %.lr.ph

._crit_edge:                                      ; preds = %14, %1
  tail call void (ptr, i32, ptr, ...) @av_log(ptr noundef %0, i32 noundef 16, ptr noundef nonnull @.str.3, i32 noundef %.pre) #3
  br label %75

.lr.ph:                                           ; preds = %1, %14
  %indvars.iv = phi i64 [ %indvars.iv.next, %14 ], [ 0, %1 ]
  %10 = phi i16 [ %16, %14 ], [ %8, %1 ]
  %11 = zext i16 %10 to i32
  %12 = mul nuw nsw i32 %11, 100
  %13 = icmp eq i32 %12, %.pre
  br i1 %13, label %18, label %14

14:                                               ; preds = %.lr.ph
  %indvars.iv.next = add nuw nsw i64 %indvars.iv, 1
  %15 = getelementptr inbounds nuw [8 x i16], ptr @ff_oma_srate_tab, i64 0, i64 %indvars.iv.next
  %16 = load i16, ptr %15, align 2, !tbaa !33
  %17 = icmp eq i16 %16, 0
  br i1 %17, label %._crit_edge, label %.lr.ph

18:                                               ; preds = %.lr.ph
  %19 = trunc nuw nsw i64 %indvars.iv to i32
  %20 = tail call i32 @ff_id3v2_write_simple(ptr noundef %0, i32 noundef 3, ptr noundef nonnull @.str.4) #3
  %21 = getelementptr inbounds nuw i8, ptr %0, i64 32
  %22 = load ptr, ptr %21, align 8, !tbaa !38
  tail call void @avio_wl32(ptr noundef %22, i32 noundef 3359045) #3
  %23 = load ptr, ptr %21, align 8, !tbaa !38
  tail call void @avio_w8(ptr noundef %23, i32 noundef 0) #3
  %24 = load ptr, ptr %21, align 8, !tbaa !38
  tail call void @avio_w8(ptr noundef %24, i32 noundef 96) #3
  %25 = load ptr, ptr %21, align 8, !tbaa !38
  tail call void @avio_wl16(ptr noundef %25, i32 noundef 65535) #3
  %26 = load ptr, ptr %21, align 8, !tbaa !38
  tail call void @ffio_fill(ptr noundef %26, i32 noundef 0, i64 noundef 24) #3
  %27 = getelementptr inbounds nuw i8, ptr %7, i64 8
  %28 = load i32, ptr %27, align 8, !tbaa !39
  switch i32 %28, label %71 [
    i32 0, label %29
    i32 1, label %58
  ]

29:                                               ; preds = %18
  %30 = getelementptr inbounds nuw i8, ptr %7, i64 132
  %31 = load i32, ptr %30, align 4, !tbaa !40
  %.not = icmp eq i32 %31, 2
  br i1 %.not, label %33, label %32

32:                                               ; preds = %29
  tail call void (ptr, i32, ptr, ...) @av_log(ptr noundef nonnull %0, i32 noundef 16, ptr noundef nonnull @.str.6) #3
  br label %75

33:                                               ; preds = %29
  %34 = getelementptr inbounds nuw i8, ptr %7, i64 24
  %35 = load i32, ptr %34, align 8, !tbaa !41
  switch i32 %35, label %48 [
    i32 14, label %36
    i32 10, label %42
  ]

36:                                               ; preds = %33
  %37 = getelementptr inbounds nuw i8, ptr %7, i64 16
  %38 = load ptr, ptr %37, align 8, !tbaa !42
  %39 = getelementptr inbounds nuw i8, ptr %38, i64 6
  %40 = load i8, ptr %39, align 1, !tbaa !43
  %41 = icmp ne i8 %40, 0
  br label %49

42:                                               ; preds = %33
  %43 = getelementptr inbounds nuw i8, ptr %7, i64 16
  %44 = load ptr, ptr %43, align 8, !tbaa !42
  %45 = getelementptr inbounds nuw i8, ptr %44, i64 8
  %46 = load i8, ptr %45, align 1, !tbaa !43
  %47 = icmp eq i8 %46, 18
  br label %49

48:                                               ; preds = %33
  tail call void (ptr, i32, ptr, ...) @av_log(ptr noundef nonnull %0, i32 noundef 16, ptr noundef nonnull @.str.7) #3
  br label %75

49:                                               ; preds = %42, %36
  %.0.in = phi i1 [ %41, %36 ], [ %47, %42 ]
  %50 = load ptr, ptr %21, align 8, !tbaa !38
  %51 = select i1 %.0.in, i32 131072, i32 0
  %52 = shl i32 %19, 13
  %53 = or i32 %51, %52
  %54 = getelementptr inbounds nuw i8, ptr %7, i64 156
  %55 = load i32, ptr %54, align 4, !tbaa !44
  %56 = sdiv i32 %55, 8
  %57 = or i32 %53, %56
  tail call void @avio_wb32(ptr noundef %50, i32 noundef %57) #3
  br label %73

58:                                               ; preds = %18
  %59 = load ptr, ptr %21, align 8, !tbaa !38
  %60 = shl i32 %19, 13
  %61 = getelementptr inbounds nuw i8, ptr %7, i64 132
  %62 = load i32, ptr %61, align 4, !tbaa !40
  %63 = shl i32 %62, 10
  %64 = getelementptr inbounds nuw i8, ptr %7, i64 156
  %65 = load i32, ptr %64, align 4, !tbaa !44
  %66 = sdiv i32 %65, 8
  %67 = add nsw i32 %66, -1
  %68 = or i32 %60, %63
  %69 = or i32 %68, %67
  %70 = or i32 %69, 16777216
  tail call void @avio_wb32(ptr noundef %59, i32 noundef %70) #3
  br label %73

71:                                               ; preds = %18
  call void @llvm.memset.p0.i64(ptr noundef nonnull align 1 dereferenceable(32) %2, i8 0, i64 32, i1 false)
  %72 = call ptr @av_fourcc_make_string(ptr noundef nonnull %2, i32 noundef %28) #3
  call void (ptr, i32, ptr, ...) @av_log(ptr noundef nonnull %0, i32 noundef 16, ptr noundef nonnull @.str.8, ptr noundef %72) #3
  br label %75

73:                                               ; preds = %58, %49
  %74 = load ptr, ptr %21, align 8, !tbaa !38
  tail call void @ffio_fill(ptr noundef %74, i32 noundef 0, i64 noundef 60) #3
  br label %75

75:                                               ; preds = %73, %71, %48, %32, %._crit_edge
  %.033 = phi i32 [ -22, %._crit_edge ], [ -22, %71 ], [ 0, %73 ], [ -22, %32 ], [ -22, %48 ]
  ret i32 %.033
}